; ModuleID = '32/1744.c'
source_filename = "32/1744.c"
target datalayout = "e-m:e-p270:32:32-p271:32:32-p272:64:64-i64:64-f80:128-n8:16:32:64-S128"
target triple = "x86_64-pc-linux-gnu"

@.str = private unnamed_addr constant [3 x i8] c"%d\00", align 1
@.str.1 = private unnamed_addr constant [6 x i8] c"%s %s\00", align 1
@.str.2 = private unnamed_addr constant [2 x i8] c"\0A\00", align 1

; Function Attrs: noinline nounwind uwtable
define dso_local void @main() #0 {
  %1 = alloca i32, align 4
  %2 = alloca i32, align 4
  %3 = alloca i32, align 4
  %4 = alloca i32, align 4
  %5 = alloca [100 x i32], align 16
  %6 = alloca i32, align 4
  %7 = alloca i32, align 4
  %8 = alloca [100 x i8], align 16
  %9 = alloca [100 x i8], align 16
  %10 = call i32 (i8*, ...) @__isoc99_scanf(i8* getelementptr inbounds ([3 x i8], [3 x i8]* @.str, i64 0, i64 0), i32* %4)
  store i32 0, i32* %1, align 4
  br label %11

11:                                               ; preds = %129, %0
  %12 = load i32, i32* %1, align 4
  %13 = load i32, i32* %4, align 4
  %14 = icmp slt i32 %12, %13
  br i1 %14, label %15, label %132

15:                                               ; preds = %11
  %16 = getelementptr inbounds [100 x i8], [100 x i8]* %8, i64 0, i64 0
  %17 = getelementptr inbounds [100 x i8], [100 x i8]* %9, i64 0, i64 0
  %18 = call i32 (i8*, ...) @__isoc99_scanf(i8* getelementptr inbounds ([6 x i8], [6 x i8]* @.str.1, i64 0, i64 0), i8* %16, i8* %17)
  %19 = getelementptr inbounds [100 x i8], [100 x i8]* %8, i64 0, i64 0
  %20 = call i64 @strlen(i8* %19) #3
  %21 = trunc i64 %20 to i32
  store i32 %21, i32* %6, align 4
  %22 = getelementptr inbounds [100 x i8], [100 x i8]* %9, i64 0, i64 0
  %23 = call i64 @strlen(i8* %22) #3
  %24 = trunc i64 %23 to i32
  store i32 %24, i32* %7, align 4
  %25 = load i32, i32* %6, align 4
  %26 = sub nsw i32 %25, 1
  store i32 %26, i32* %2, align 4
  %27 = load i32, i32* %7, align 4
  %28 = sub nsw i32 %27, 1
  store i32 %28, i32* %3, align 4
  br label %29

29:                                               ; preds = %90, %15
  %30 = load i32, i32* %3, align 4
  %31 = icmp sge i32 %30, 0
  br i1 %31, label %32, label %93

32:                                               ; preds = %29
  %33 = load i32, i32* %2, align 4
  %34 = sext i32 %33 to i64
  %35 = getelementptr inbounds [100 x i8], [100 x i8]* %8, i64 0, i64 %34
  %36 = load i8, i8* %35, align 1
  %37 = sext i8 %36 to i32
  %38 = load i32, i32* %3, align 4
  %39 = sext i32 %38 to i64
  %40 = getelementptr inbounds [100 x i8], [100 x i8]* %9, i64 0, i64 %39
  %41 = load i8, i8* %40, align 1
  %42 = sext i8 %41 to i32
  %43 = icmp slt i32 %37, %42
  br i1 %43, label %44, label %72

44:                                               ; preds = %32
  %45 = load i32, i32* %2, align 4
  %46 = sext i32 %45 to i64
  %47 = getelementptr inbounds [100 x i8], [100 x i8]* %8, i64 0, i64 %46
  %48 = load i8, i8* %47, align 1
  %49 = sext i8 %48 to i32
  %50 = load i32, i32* %3, align 4
  %51 = sext i32 %50 to i64
  %52 = getelementptr inbounds [100 x i8], [100 x i8]* %9, i64 0, i64 %51
  %53 = load i8, i8* %52, align 1
  %54 = sext i8 %53 to i32
  %55 = sub nsw i32 %49, %54
  %56 = add nsw i32 %55, 10
  %57 = load i32, i32* %2, align 4
  %58 = sext i32 %57 to i64
  %59 = getelementptr inbounds [100 x i32], [100 x i32]* %5, i64 0, i64 %58
  store i32 %56, i32* %59, align 4
  %60 = load i32, i32* %2, align 4
  %61 = sub nsw i32 %60, 1
  %62 = sext i32 %61 to i64
  %63 = getelementptr inbounds [100 x i8], [100 x i8]* %8, i64 0, i64 %62
  %64 = load i8, i8* %63, align 1
  %65 = sext i8 %64 to i32
  %66 = sub nsw i32 %65, 1
  %67 = trunc i32 %66 to i8
  %68 = load i32, i32* %2, align 4
  %69 = sub nsw i32 %68, 1
  %70 = sext i32 %69 to i64
  %71 = getelementptr inbounds [100 x i8], [100 x i8]* %8, i64 0, i64 %70
  store i8 %67, i8* %71, align 1
  br label %87

72:                                               ; preds = %32
  %73 = load i32, i32* %2, align 4
  %74 = sext i32 %73 to i64
  %75 = getelementptr inbounds [100 x i8], [100 x i8]* %8, i64 0, i64 %74
  %76 = load i8, i8* %75, align 1
  %77 = sext i8 %76 to i32
  %78 = load i32, i32* %3, align 4
  %79 = sext i32 %78 to i64
  %80 = getelementptr inbounds [100 x i8], [100 x i8]* %9, i64 0, i64 %79
  %81 = load i8, i8* %80, align 1
  %82 = sext i8 %81 to i32
  %83 = sub nsw i32 %77, %82
  %84 = load i32, i32* %2, align 4
  %85 = sext i32 %84 to i64
  %86 = getelementptr inbounds [100 x i32], [100 x i32]* %5, i64 0, i64 %85
  store i32 %83, i32* %86, align 4
  br label %87

87:                                               ; preds = %72, %44
  %88 = load i32, i32* %2, align 4
  %89 = add nsw i32 %88, -1
  store i32 %89, i32* %2, align 4
  br label %90

90:                                               ; preds = %87
  %91 = load i32, i32* %3, align 4
  %92 = add nsw i32 %91, -1
  store i32 %92, i32* %3, align 4
  br label %29

93:                                               ; preds = %29
  store i32 0, i32* %2, align 4
  br label %94

94:                                               ; preds = %110, %93
  %95 = load i32, i32* %2, align 4
  %96 = load i32, i32* %6, align 4
  %97 = load i32, i32* %7, align 4
  %98 = sub nsw i32 %96, %97
  %99 = icmp slt i32 %95, %98
  br i1 %99, label %100, label %113

100:                                              ; preds = %94
  %101 = load i32, i32* %2, align 4
  %102 = sext i32 %101 to i64
  %103 = getelementptr inbounds [100 x i8], [100 x i8]* %8, i64 0, i64 %102
  %104 = load i8, i8* %103, align 1
  %105 = sext i8 %104 to i32
  %106 = sub nsw i32 %105, 48
  %107 = load i32, i32* %2, align 4
  %108 = sext i32 %107 to i64
  %109 = getelementptr inbounds [100 x i32], [100 x i32]* %5, i64 0, i64 %108
  store i32 %106, i32* %109, align 4
  br label %110

110:                                              ; preds = %100
  %111 = load i32, i32* %2, align 4
  %112 = add nsw i32 %111, 1
  store i32 %112, i32* %2, align 4
  br label %94

113:                                              ; preds = %94
  store i32 0, i32* %2, align 4
  br label %114

114:                                              ; preds = %124, %113
  %115 = load i32, i32* %2, align 4
  %116 = load i32, i32* %6, align 4
  %117 = icmp slt i32 %115, %116
  br i1 %117, label %118, label %127

118:                                              ; preds = %114
  %119 = load i32, i32* %2, align 4
  %120 = sext i32 %119 to i64
  %121 = getelementptr inbounds [100 x i32], [100 x i32]* %5, i64 0, i64 %120
  %122 = load i32, i32* %121, align 4
  %123 = call i32 (i8*, ...) @printf(i8* getelementptr inbounds ([3 x i8], [3 x i8]* @.str, i64 0, i64 0), i32 %122)
  br label %124

124:                                              ; preds = %118
  %125 = load i32, i32* %2, align 4
  %126 = add nsw i32 %125, 1
  store i32 %126, i32* %2, align 4
  br label %114

127:                                              ; preds = %114
  %128 = call i32 (i8*, ...) @printf(i8* getelementptr inbounds ([2 x i8], [2 x i8]* @.str.2, i64 0, i64 0))
  br label %129

129:                                              ; preds = %127
  %130 = load i32, i32* %1, align 4
  %131 = add nsw i32 %130, 1
  store i32 %131, i32* %1, align 4
  br label %11

132:                                              ; preds = %11
  ret void
}

declare dso_local i32 @__isoc99_scanf(i8*, ...) #1

; Function Attrs: nounwind readonly
declare dso_local i64 @strlen(i8*) #2

declare dso_local i32 @printf(i8*, ...) #1


!llvm.module.flags = !{!0}
!llvm.ident = !{!1}

!0 = !{i32 1, !"wchar_size", i32 4}
!1 = !{!"clang version 10.0.0-4ubuntu1 "}
